
6.test2_interrupt.exe:     file format elf32-sisa
6.test2_interrupt.exe
architecture: sisa:3, flags 0x00000112:
EXEC_P, HAS_SYMS, D_PAGED
start address 0x0000c000

Program Header:
    LOAD off    0x00000000 vaddr 0x0000bf8c paddr 0x0000bf8c align 2**0
         filesz 0x0000047c memsz 0x0000047c flags r-x
    LOAD off    0x0000047c vaddr 0x00008000 paddr 0x0000c408 align 2**0
         filesz 0x000000a2 memsz 0x000000a2 flags rw-

Sections:
Idx Name          Size      VMA       LMA       File off  Algn  Flags
  0 .text         00000408  0000c000  0000c000  00000074  2**0  CONTENTS, ALLOC, LOAD, READONLY, CODE
  1 .data         000000a2  00008000  0000c408  0000047c  2**1  CONTENTS, ALLOC, LOAD, DATA
  2 .stab         00001290  00000000  00000000  00000520  2**2  CONTENTS, READONLY, DEBUGGING
  3 .stabstr      00000057  00000000  00000000  000017b0  2**0  CONTENTS, READONLY, DEBUGGING
SYMBOL TABLE:
0000c000 l    d  .text	00000000 .text
00008000 l    d  .data	00000000 .data
00000000 l    d  .stab	00000000 .stab
00000000 l    d  .stabstr	00000000 .stabstr
00000000 l    d  *ABS*	00000000 .shstrtab
00000000 l    d  *ABS*	00000000 .symtab
00000000 l    d  *ABS*	00000000 .strtab
00004000 l       *ABS*	00000000 PILA
0000152e l       *ABS*	00000000 CHAR_CLEAR_SCREEN
00008000 l       .data	00000000 frase0a
0000800e l       .data	00000000 frase0b
00008015 l       .data	00000000 frase1
00008022 l       .data	00000000 frase2
00008032 l       .data	00000000 frase3a
00008047 l       .data	00000000 frase3b
0000805d l       .data	00000000 cadena_aux
00008068 l       .data	00000000 d_ticks
0000806a l       .data	00000000 d_pulsadores
0000806c l       .data	00000000 d_interruptores
0000806e l       .data	00000000 d_tecla
00008070 l       .data	00000000 d_clicks_tecla
00008072 l       .data	00000000 d_ticks_seg
00008074 l       .data	00000000 d_segundos
00008076 l       .data	00000000 d_minutos
00008078 l       .data	00000000 d_horas
0000807a l       .data	00000000 interrupts_vector
0000c076 l       .text	00000000 __interrup_timer
0000c0ce l       .text	00000000 __interrup_key
0000c0e4 l       .text	00000000 __interrup_switch
0000c0f4 l       .text	00000000 __interrup_keyboard
00008082 l       .data	00000000 exceptions_vector
0000c1e8 l       .text	00000000 __ilegal_ins
0000c200 l       .text	00000000 __no_align
0000c074 l       .text	00000000 RSE_default_halt
0000c1f4 l       .text	00000000 __div_zero
0000c072 l       .text	00000000 RSE_default_resume
0000c010 l       .text	00000000 RSG
0000c116 l       .text	00000000 inici
0000c044 l       .text	00000000 __interrupcion
0000c036 l       .text	00000000 __excepcion
0000c052 l       .text	00000000 __finRSG
0000c0c8 l       .text	00000000 __finreloj
0000c10c l       .text	00000000 __distintas
0000c10e l       .text	00000000 __fin_keyboard
0000c20a l       .text	00000000 __clear_screen
0000c132 l       .text	00000000 binf
0000c220 l       .text	00000000 __write_line
0000c230 l       .text	00000000 __write_valor
0000c264 l       .text	00000000 __mostrar_reloj
0000c216 l       .text	00000000 __repe
0000c220 l       .text	00000000 bucle_cad
0000c22e l       .text	00000000 fin_bucle_cad
0000c314 l       .text	00000000 __itoa
0000c24c l       .text	00000000 bucle_val
0000c25a l       .text	00000000 fin_bucle_val
0000c280 l       .text	00000000 bcad_hora
0000c28e l       .text	00000000 fin_bcad_hora
0000c2c2 l       .text	00000000 bcad_min
0000c2d0 l       .text	00000000 fin_bcad_min
0000c304 l       .text	00000000 bcad_seg
0000c312 l       .text	00000000 fin_bcad_seg
0000c344 l       .text	00000000 __for1
0000c37c l       .text	00000000 __condfor1
0000c34e l       .text	00000000 __cosfor1
0000c3de l       .text	00000000 __condfor2
0000c3b4 l       .text	00000000 __cosfor2
0000c000 g       .text	00000000 __entry_point
0000c408 g       .text	00000000 _etext
0000c4aa g       *ABS*	00000000 __data_load_end
0000c408 g       *ABS*	00000000 __data_load_start
0000c408 g       .text	00000000 __dtors_end
0000c408 g       .text	00000000 __ctors_start
0000c408 g       .text	00000000 __dtors_start
0000c408 g       .text	00000000 __ctors_end
000080a2 g       .data	00000000 _edata
000080a2 g       *ABS*	00000000 _end



6.test2_interrupt.exe:     file format elf32-sisa

Contents of section .data:
 8000 5469636b 73205469 6d65723a 2000486f  Ticks Timer: .Ho
 8010 72613a20 0050756c 7361646f 7265733a  ra: .Pulsadores:
 8020 2000496e 74657272 7570746f 7265733a   .Interruptores:
 8030 2000436f 6469676f 20415343 49492074   .Codigo ASCII t
 8040 65636c61 3a20004e 756d6572 6f207265  ecla: .Numero re
 8050 70657469 63696f6e 65733a20 00000000  peticiones: ....
 8060 00000000 00000000 00000000 00000000  ................
 8070 00000000 00000000 000076c0 cec0e4c0  ..........v.....
 8080 f4c0e8c1 00c274c0 74c0f4c1 72c074c0  ......t.t...r.t.
 8090 74c074c0 74c074c0 74c074c0 74c074c0  t.t.t.t.t.t.t.t.
 80a0 72c0                                 r.              

6.test2_interrupt.exe:     file format elf32-sisa

Disassembly of section .text:

0000c000 <__entry_point>:
    c000:	5210 	movi	r1, 16
    c002:	53c0 	movhi	r1, -64
    c004:	fa70 	wrs	s5, r1
    c006:	5e00 	movi	r7, 0
    c008:	5f40 	movhi	r7, 64
    c00a:	5c16 	movi	r6, 22
    c00c:	5dc1 	movhi	r6, -63
    c00e:	a183 	jmp	r6

0000c010 <RSG>:
    c010:	2ff2 	addi	r7, r7, -14
    c012:	41c6 	st	12(r7), r0
    c014:	43c5 	st	10(r7), r1
    c016:	45c4 	st	8(r7), r2
    c018:	47c3 	st	6(r7), r3
    c01a:	49c2 	st	4(r7), r4
    c01c:	4bc1 	st	2(r7), r5
    c01e:	4dc0 	st	0(r7), r6
    c020:	f22c 	rds	r1, s0
    c022:	f46c 	rds	r2, s1
    c024:	f6ec 	rds	r3, s3
    c026:	2ffa 	addi	r7, r7, -6
    c028:	43c2 	st	4(r7), r1
    c02a:	45c1 	st	2(r7), r2
    c02c:	47c0 	st	0(r7), r3
    c02e:	f2ac 	rds	r1, s2
    c030:	540f 	movi	r2, 15
    c032:	1642 	cmplt	r3, r1, r2
    c034:	6607 	bz	r3, 16

0000c036 <__excepcion>:
    c036:	5482 	movi	r2, -126
    c038:	5580 	movhi	r2, -128
    c03a:	0261 	add	r1, r1, r1
    c03c:	04a1 	add	r2, r2, r1
    c03e:	3480 	ld	r2, 0(r2)
    c040:	ac84 	jal	r6, r2
    c042:	6707 	bnz	r3, 16

0000c044 <__interrupcion>:
    c044:	f228 	getiid	r1
    c046:	0261 	add	r1, r1, r1
    c048:	547a 	movi	r2, 122
    c04a:	5580 	movhi	r2, -128
    c04c:	04a1 	add	r2, r2, r1
    c04e:	3480 	ld	r2, 0(r2)
    c050:	ac84 	jal	r6, r2

0000c052 <__finRSG>:
    c052:	37c0 	ld	r3, 0(r7)
    c054:	35c1 	ld	r2, 2(r7)
    c056:	33c2 	ld	r1, 4(r7)
    c058:	2fc6 	addi	r7, r7, 6
    c05a:	f6f0 	wrs	s3, r3
    c05c:	f2b0 	wrs	s1, r2
    c05e:	f070 	wrs	s0, r1
    c060:	3dc0 	ld	r6, 0(r7)
    c062:	3bc1 	ld	r5, 2(r7)
    c064:	39c2 	ld	r4, 4(r7)
    c066:	37c3 	ld	r3, 6(r7)
    c068:	35c4 	ld	r2, 8(r7)
    c06a:	33c5 	ld	r1, 10(r7)
    c06c:	31c6 	ld	r0, 12(r7)
    c06e:	2fce 	addi	r7, r7, 14
    c070:	f024 	reti	

0000c072 <RSE_default_resume>:
    c072:	a183 	jmp	r6

0000c074 <RSE_default_halt>:
    c074:	ffff 	halt	

0000c076 <__interrup_timer>:
    c076:	5868 	movi	r4, 104
    c078:	5980 	movhi	r4, -128
    c07a:	3700 	ld	r3, 0(r4)
    c07c:	26c1 	addi	r3, r3, 1
    c07e:	4700 	st	0(r4), r3
    c080:	770a 	out	10, r3
    c082:	5872 	movi	r4, 114
    c084:	5980 	movhi	r4, -128
    c086:	3700 	ld	r3, 0(r4)
    c088:	26c1 	addi	r3, r3, 1
    c08a:	4700 	st	0(r4), r3
    c08c:	5214 	movi	r1, 20
    c08e:	12d9 	cmpeq	r1, r3, r1
    c090:	621b 	bz	r1, 56
    c092:	5600 	movi	r3, 0
    c094:	4700 	st	0(r4), r3
    c096:	5874 	movi	r4, 116
    c098:	5980 	movhi	r4, -128
    c09a:	3700 	ld	r3, 0(r4)
    c09c:	26c1 	addi	r3, r3, 1
    c09e:	4700 	st	0(r4), r3
    c0a0:	523c 	movi	r1, 60
    c0a2:	12d9 	cmpeq	r1, r3, r1
    c0a4:	6211 	bz	r1, 36
    c0a6:	5600 	movi	r3, 0
    c0a8:	4700 	st	0(r4), r3
    c0aa:	5876 	movi	r4, 118
    c0ac:	5980 	movhi	r4, -128
    c0ae:	3700 	ld	r3, 0(r4)
    c0b0:	26c1 	addi	r3, r3, 1
    c0b2:	4700 	st	0(r4), r3
    c0b4:	523c 	movi	r1, 60
    c0b6:	12d9 	cmpeq	r1, r3, r1
    c0b8:	6207 	bz	r1, 16
    c0ba:	5600 	movi	r3, 0
    c0bc:	4700 	st	0(r4), r3
    c0be:	5878 	movi	r4, 120
    c0c0:	5980 	movhi	r4, -128
    c0c2:	3700 	ld	r3, 0(r4)
    c0c4:	26c1 	addi	r3, r3, 1
    c0c6:	4700 	st	0(r4), r3

0000c0c8 <__finreloj>:
    c0c8:	5c52 	movi	r6, 82
    c0ca:	5dc0 	movhi	r6, -64
    c0cc:	a183 	jmp	r6

0000c0ce <__interrup_key>:
    c0ce:	7607 	in	r3, 7
    c0d0:	06d8 	not	r3, r3
    c0d2:	580f 	movi	r4, 15
    c0d4:	06c4 	and	r3, r3, r4
    c0d6:	7705 	out	5, r3
    c0d8:	586a 	movi	r4, 106
    c0da:	5980 	movhi	r4, -128
    c0dc:	4700 	st	0(r4), r3
    c0de:	5c52 	movi	r6, 82
    c0e0:	5dc0 	movhi	r6, -64
    c0e2:	a183 	jmp	r6

0000c0e4 <__interrup_switch>:
    c0e4:	7608 	in	r3, 8
    c0e6:	7706 	out	6, r3
    c0e8:	586c 	movi	r4, 108
    c0ea:	5980 	movhi	r4, -128
    c0ec:	4700 	st	0(r4), r3
    c0ee:	5c52 	movi	r6, 82
    c0f0:	5dc0 	movhi	r6, -64
    c0f2:	a183 	jmp	r6

0000c0f4 <__interrup_keyboard>:
    c0f4:	760f 	in	r3, 15
    c0f6:	586e 	movi	r4, 110
    c0f8:	5980 	movhi	r4, -128
    c0fa:	3b00 	ld	r5, 0(r4)
    c0fc:	4700 	st	0(r4), r3
    c0fe:	16dd 	cmpeq	r3, r3, r5
    c100:	5870 	movi	r4, 112
    c102:	5980 	movhi	r4, -128
    c104:	6603 	bz	r3, 8
    c106:	3b00 	ld	r5, 0(r4)
    c108:	2b41 	addi	r5, r5, 1
    c10a:	6701 	bnz	r3, 4

0000c10c <__distintas>:
    c10c:	5a01 	movi	r5, 1

0000c10e <__fin_keyboard>:
    c10e:	4b00 	st	0(r4), r5
    c110:	5c52 	movi	r6, 82
    c112:	5dc0 	movhi	r6, -64
    c114:	a183 	jmp	r6

0000c116 <inici>:
    c116:	520f 	movi	r1, 15
    c118:	7309 	out	9, r1
    c11a:	5200 	movi	r1, 0
    c11c:	730a 	out	10, r1
    c11e:	7305 	out	5, r1
    c120:	7208 	in	r1, 8
    c122:	7306 	out	6, r1
    c124:	5c0a 	movi	r6, 10
    c126:	5dc2 	movhi	r6, -62
    c128:	ad84 	jal	r6, r6
    c12a:	5200 	movi	r1, 0
    c12c:	5300 	movhi	r1, 0
    c12e:	f870 	wrs	s4, r1
    c130:	f020 	ei	

0000c132 <binf>:
    c132:	5200 	movi	r1, 0
    c134:	53a0 	movhi	r1, -96
    c136:	5400 	movi	r2, 0
    c138:	5580 	movhi	r2, -128
    c13a:	5c20 	movi	r6, 32
    c13c:	5dc2 	movhi	r6, -62
    c13e:	ad84 	jal	r6, r6
    c140:	521a 	movi	r1, 26
    c142:	53a0 	movhi	r1, -96
    c144:	5468 	movi	r2, 104
    c146:	5580 	movhi	r2, -128
    c148:	3480 	ld	r2, 0(r2)
    c14a:	5c30 	movi	r6, 48
    c14c:	5dc2 	movhi	r6, -62
    c14e:	ad84 	jal	r6, r6
    c150:	5232 	movi	r1, 50
    c152:	53a0 	movhi	r1, -96
    c154:	540e 	movi	r2, 14
    c156:	5580 	movhi	r2, -128
    c158:	5c20 	movi	r6, 32
    c15a:	5dc2 	movhi	r6, -62
    c15c:	ad84 	jal	r6, r6
    c15e:	523e 	movi	r1, 62
    c160:	53a0 	movhi	r1, -96
    c162:	5c64 	movi	r6, 100
    c164:	5dc2 	movhi	r6, -62
    c166:	ad84 	jal	r6, r6
    c168:	52a0 	movi	r1, -96
    c16a:	53a0 	movhi	r1, -96
    c16c:	5415 	movi	r2, 21
    c16e:	5580 	movhi	r2, -128
    c170:	5c20 	movi	r6, 32
    c172:	5dc2 	movhi	r6, -62
    c174:	ad84 	jal	r6, r6
    c176:	52b8 	movi	r1, -72
    c178:	53a0 	movhi	r1, -96
    c17a:	546a 	movi	r2, 106
    c17c:	5580 	movhi	r2, -128
    c17e:	3480 	ld	r2, 0(r2)
    c180:	5c30 	movi	r6, 48
    c182:	5dc2 	movhi	r6, -62
    c184:	ad84 	jal	r6, r6
    c186:	5240 	movi	r1, 64
    c188:	53a1 	movhi	r1, -95
    c18a:	5422 	movi	r2, 34
    c18c:	5580 	movhi	r2, -128
    c18e:	5c20 	movi	r6, 32
    c190:	5dc2 	movhi	r6, -62
    c192:	ad84 	jal	r6, r6
    c194:	525e 	movi	r1, 94
    c196:	53a1 	movhi	r1, -95
    c198:	546c 	movi	r2, 108
    c19a:	5580 	movhi	r2, -128
    c19c:	3480 	ld	r2, 0(r2)
    c19e:	5c30 	movi	r6, 48
    c1a0:	5dc2 	movhi	r6, -62
    c1a2:	ad84 	jal	r6, r6
    c1a4:	52e0 	movi	r1, -32
    c1a6:	53a1 	movhi	r1, -95
    c1a8:	5432 	movi	r2, 50
    c1aa:	5580 	movhi	r2, -128
    c1ac:	5c20 	movi	r6, 32
    c1ae:	5dc2 	movhi	r6, -62
    c1b0:	ad84 	jal	r6, r6
    c1b2:	5208 	movi	r1, 8
    c1b4:	53a2 	movhi	r1, -94
    c1b6:	546e 	movi	r2, 110
    c1b8:	5580 	movhi	r2, -128
    c1ba:	3480 	ld	r2, 0(r2)
    c1bc:	5c30 	movi	r6, 48
    c1be:	5dc2 	movhi	r6, -62
    c1c0:	ad84 	jal	r6, r6
    c1c2:	5212 	movi	r1, 18
    c1c4:	53a2 	movhi	r1, -94
    c1c6:	5447 	movi	r2, 71
    c1c8:	5580 	movhi	r2, -128
    c1ca:	5c20 	movi	r6, 32
    c1cc:	5dc2 	movhi	r6, -62
    c1ce:	ad84 	jal	r6, r6
    c1d0:	523c 	movi	r1, 60
    c1d2:	53a2 	movhi	r1, -94
    c1d4:	5470 	movi	r2, 112
    c1d6:	5580 	movhi	r2, -128
    c1d8:	3480 	ld	r2, 0(r2)
    c1da:	5c30 	movi	r6, 48
    c1dc:	5dc2 	movhi	r6, -62
    c1de:	ad84 	jal	r6, r6
    c1e0:	5c32 	movi	r6, 50
    c1e2:	5dc1 	movhi	r6, -63
    c1e4:	a183 	jmp	r6
    c1e6:	ffff 	halt	

0000c1e8 <__ilegal_ins>:
    c1e8:	f32c 	rds	r1, s4
    c1ea:	2241 	addi	r1, r1, 1
    c1ec:	f870 	wrs	s4, r1
    c1ee:	5c52 	movi	r6, 82
    c1f0:	5dc0 	movhi	r6, -64
    c1f2:	a183 	jmp	r6

0000c1f4 <__div_zero>:
    c1f4:	f32c 	rds	r1, s4
    c1f6:	2241 	addi	r1, r1, 1
    c1f8:	f870 	wrs	s4, r1
    c1fa:	5c52 	movi	r6, 82
    c1fc:	5dc0 	movhi	r6, -64
    c1fe:	a183 	jmp	r6

0000c200 <__no_align>:
    c200:	f32c 	rds	r1, s4
    c202:	2241 	addi	r1, r1, 1
    c204:	5c52 	movi	r6, 82
    c206:	5dc0 	movhi	r6, -64
    c208:	a183 	jmp	r6

0000c20a <__clear_screen>:
    c20a:	5000 	movi	r0, 0
    c20c:	51a0 	movhi	r0, -96
    c20e:	5260 	movi	r1, 96
    c210:	5309 	movhi	r1, 9
    c212:	542e 	movi	r2, 46
    c214:	5515 	movhi	r2, 21

0000c216 <__repe>:
    c216:	4400 	st	0(r0), r2
    c218:	2002 	addi	r0, r0, 2
    c21a:	227f 	addi	r1, r1, -1
    c21c:	63fc 	bnz	r1, -6
    c21e:	a183 	jmp	r6

0000c220 <__write_line>:
    c220:	d880 	ldb	r4, 0(r2)
    c222:	6805 	bz	r4, 12
    c224:	590f 	movhi	r4, 15
    c226:	4840 	st	0(r1), r4
    c228:	2242 	addi	r1, r1, 2
    c22a:	2481 	addi	r2, r2, 1
    c22c:	69f9 	bnz	r4, -12

0000c22e <fin_bucle_cad>:
    c22e:	a183 	jmp	r6

0000c230 <__write_valor>:
    c230:	2ffe 	addi	r7, r7, -2
    c232:	43c0 	st	0(r7), r1
    c234:	585d 	movi	r4, 93
    c236:	5980 	movhi	r4, -128
    c238:	2ffe 	addi	r7, r7, -2
    c23a:	49c0 	st	0(r7), r4
    c23c:	2ffe 	addi	r7, r7, -2
    c23e:	45c0 	st	0(r7), r2
    c240:	5a14 	movi	r5, 20
    c242:	5bc3 	movhi	r5, -61
    c244:	ab44 	jal	r5, r5
    c246:	2fc4 	addi	r7, r7, 4
    c248:	33c0 	ld	r1, 0(r7)
    c24a:	2fc2 	addi	r7, r7, 2

0000c24c <bucle_val>:
    c24c:	db00 	ldb	r5, 0(r4)
    c24e:	6a05 	bz	r5, 12
    c250:	5b3c 	movhi	r5, 60
    c252:	4a40 	st	0(r1), r5
    c254:	2242 	addi	r1, r1, 2
    c256:	2901 	addi	r4, r4, 1
    c258:	6bf9 	bnz	r5, -12

0000c25a <fin_bucle_val>:
    c25a:	5a2e 	movi	r5, 46
    c25c:	5b15 	movhi	r5, 21
    c25e:	4a40 	st	0(r1), r5
    c260:	4a41 	st	2(r1), r5
    c262:	a183 	jmp	r6

0000c264 <__mostrar_reloj>:
    c264:	2040 	addi	r0, r1, 0
    c266:	585d 	movi	r4, 93
    c268:	5980 	movhi	r4, -128
    c26a:	2ffe 	addi	r7, r7, -2
    c26c:	49c0 	st	0(r7), r4
    c26e:	5678 	movi	r3, 120
    c270:	5780 	movhi	r3, -128
    c272:	36c0 	ld	r3, 0(r3)
    c274:	2ffe 	addi	r7, r7, -2
    c276:	47c0 	st	0(r7), r3
    c278:	5a14 	movi	r5, 20
    c27a:	5bc3 	movhi	r5, -61
    c27c:	ab44 	jal	r5, r5
    c27e:	2fc4 	addi	r7, r7, 4

0000c280 <bcad_hora>:
    c280:	db00 	ldb	r5, 0(r4)
    c282:	6a05 	bz	r5, 12
    c284:	5b03 	movhi	r5, 3
    c286:	4a00 	st	0(r0), r5
    c288:	2002 	addi	r0, r0, 2
    c28a:	2901 	addi	r4, r4, 1
    c28c:	6bf9 	bnz	r5, -12

0000c28e <fin_bcad_hora>:
    c28e:	5a3a 	movi	r5, 58
    c290:	5b0c 	movhi	r5, 12
    c292:	4a00 	st	0(r0), r5
    c294:	2002 	addi	r0, r0, 2
    c296:	585d 	movi	r4, 93
    c298:	5980 	movhi	r4, -128
    c29a:	2ffe 	addi	r7, r7, -2
    c29c:	49c0 	st	0(r7), r4
    c29e:	5676 	movi	r3, 118
    c2a0:	5780 	movhi	r3, -128
    c2a2:	36c0 	ld	r3, 0(r3)
    c2a4:	2ffe 	addi	r7, r7, -2
    c2a6:	47c0 	st	0(r7), r3
    c2a8:	5a14 	movi	r5, 20
    c2aa:	5bc3 	movhi	r5, -61
    c2ac:	ab44 	jal	r5, r5
    c2ae:	2fc4 	addi	r7, r7, 4
    c2b0:	5209 	movi	r1, 9
    c2b2:	12c9 	cmple	r1, r3, r1
    c2b4:	6206 	bz	r1, 14
    c2b6:	d700 	ldb	r3, 0(r4)
    c2b8:	e701 	stb	1(r4), r3
    c2ba:	5630 	movi	r3, 48
    c2bc:	e700 	stb	0(r4), r3
    c2be:	5600 	movi	r3, 0
    c2c0:	e702 	stb	2(r4), r3

0000c2c2 <bcad_min>:
    c2c2:	db00 	ldb	r5, 0(r4)
    c2c4:	6a05 	bz	r5, 12
    c2c6:	5b03 	movhi	r5, 3
    c2c8:	4a00 	st	0(r0), r5
    c2ca:	2002 	addi	r0, r0, 2
    c2cc:	2901 	addi	r4, r4, 1
    c2ce:	6bf9 	bnz	r5, -12

0000c2d0 <fin_bcad_min>:
    c2d0:	5a3a 	movi	r5, 58
    c2d2:	5b0c 	movhi	r5, 12
    c2d4:	4a00 	st	0(r0), r5
    c2d6:	2002 	addi	r0, r0, 2
    c2d8:	585d 	movi	r4, 93
    c2da:	5980 	movhi	r4, -128
    c2dc:	2ffe 	addi	r7, r7, -2
    c2de:	49c0 	st	0(r7), r4
    c2e0:	5674 	movi	r3, 116
    c2e2:	5780 	movhi	r3, -128
    c2e4:	36c0 	ld	r3, 0(r3)
    c2e6:	2ffe 	addi	r7, r7, -2
    c2e8:	47c0 	st	0(r7), r3
    c2ea:	5a14 	movi	r5, 20
    c2ec:	5bc3 	movhi	r5, -61
    c2ee:	ab44 	jal	r5, r5
    c2f0:	2fc4 	addi	r7, r7, 4
    c2f2:	5209 	movi	r1, 9
    c2f4:	12c9 	cmple	r1, r3, r1
    c2f6:	6206 	bz	r1, 14
    c2f8:	d700 	ldb	r3, 0(r4)
    c2fa:	e701 	stb	1(r4), r3
    c2fc:	5630 	movi	r3, 48
    c2fe:	e700 	stb	0(r4), r3
    c300:	5600 	movi	r3, 0
    c302:	e702 	stb	2(r4), r3

0000c304 <bcad_seg>:
    c304:	db00 	ldb	r5, 0(r4)
    c306:	6a05 	bz	r5, 12
    c308:	5b03 	movhi	r5, 3
    c30a:	4a00 	st	0(r0), r5
    c30c:	2002 	addi	r0, r0, 2
    c30e:	2901 	addi	r4, r4, 1
    c310:	6bf9 	bnz	r5, -12

0000c312 <fin_bcad_seg>:
    c312:	a183 	jmp	r6

0000c314 <__itoa>:
    c314:	2fe0 	addi	r7, r7, -32
    c316:	4bcf 	st	30(r7), r5
    c318:	4dce 	st	28(r7), r6
    c31a:	2ddc 	addi	r6, r7, 28
    c31c:	2ffc 	addi	r7, r7, -4
    c31e:	41c3 	st	6(r7), r0
    c320:	45c2 	st	4(r7), r2
    c322:	47c1 	st	2(r7), r3
    c324:	49c0 	st	0(r7), r4
    c326:	5200 	movi	r1, 0
    c328:	43bd 	st	-6(r6), r1
    c32a:	3582 	ld	r2, 4(r6)
    c32c:	5200 	movi	r1, 0
    c32e:	1281 	cmplt	r1, r2, r1
    c330:	6209 	bz	r1, 20
    c332:	3383 	ld	r1, 6(r6)
    c334:	542d 	movi	r2, 45
    c336:	e440 	stb	0(r1), r2
    c338:	5201 	movi	r1, 1
    c33a:	43bd 	st	-6(r6), r1
    c33c:	3382 	ld	r1, 4(r6)
    c33e:	0258 	not	r1, r1
    c340:	2241 	addi	r1, r1, 1
    c342:	4382 	st	4(r6), r1

0000c344 <__for1>:
    c344:	5200 	movi	r1, 0
    c346:	43be 	st	-4(r6), r1
    c348:	5a7c 	movi	r5, 124
    c34a:	5bc3 	movhi	r5, -61
    c34c:	a143 	jmp	r5

0000c34e <__cosfor1>:
    c34e:	5409 	movi	r2, 9
    c350:	33be 	ld	r1, -4(r6)
    c352:	04a9 	sub	r2, r2, r1
    c354:	45b6 	st	-20(r6), r2
    c356:	3782 	ld	r3, 4(r6)
    c358:	520a 	movi	r1, 10
    c35a:	8ae1 	div	r5, r3, r1
    c35c:	0365 	add	r1, r5, r5
    c35e:	5402 	movi	r2, 2
    c360:	0472 	sha	r2, r1, r2
    c362:	0262 	add	r1, r1, r2
    c364:	02e9 	sub	r1, r3, r1
    c366:	5430 	movi	r2, 48
    c368:	0262 	add	r1, r1, r2
    c36a:	2840 	addi	r4, r1, 0
    c36c:	4b82 	st	4(r6), r5
    c36e:	21b0 	addi	r0, r6, -16
    c370:	37b6 	ld	r3, -20(r6)
    c372:	0223 	add	r1, r0, r3
    c374:	e840 	stb	0(r1), r4
    c376:	33be 	ld	r1, -4(r6)
    c378:	2241 	addi	r1, r1, 1
    c37a:	43be 	st	-4(r6), r1

0000c37c <__condfor1>:
    c37c:	3382 	ld	r1, 4(r6)
    c37e:	5409 	movi	r2, 9
    c380:	124a 	cmple	r1, r1, r2
    c382:	5a4e 	movi	r5, 78
    c384:	5bc3 	movhi	r5, -61
    c386:	a340 	jz	r1, r5
    c388:	5409 	movi	r2, 9
    c38a:	33be 	ld	r1, -4(r6)
    c38c:	08a9 	sub	r4, r2, r1
    c38e:	3382 	ld	r1, 4(r6)
    c390:	5430 	movi	r2, 48
    c392:	0262 	add	r1, r1, r2
    c394:	2040 	addi	r0, r1, 0
    c396:	27b0 	addi	r3, r6, -16
    c398:	47b5 	st	-22(r6), r3
    c39a:	520f 	movi	r1, 15
    c39c:	0258 	not	r1, r1
    c39e:	2241 	addi	r1, r1, 1
    c3a0:	0731 	sha	r3, r4, r1
    c3a2:	2300 	addi	r1, r4, 0
    c3a4:	24c0 	addi	r2, r3, 0
    c3a6:	37b5 	ld	r3, -22(r6)
    c3a8:	02e1 	add	r1, r3, r1
    c3aa:	e040 	stb	0(r1), r0
    c3ac:	33bd 	ld	r1, -6(r6)
    c3ae:	43bf 	st	-2(r6), r1
    c3b0:	5a00 	movi	r5, 0
    c3b2:	6a15 	bz	r5, 44

0000c3b4 <__cosfor2>:
    c3b4:	35bf 	ld	r2, -2(r6)
    c3b6:	3383 	ld	r1, 6(r6)
    c3b8:	04a1 	add	r2, r2, r1
    c3ba:	45b7 	st	-18(r6), r2
    c3bc:	5409 	movi	r2, 9
    c3be:	33be 	ld	r1, -4(r6)
    c3c0:	04a9 	sub	r2, r2, r1
    c3c2:	33bf 	ld	r1, -2(r6)
    c3c4:	02a1 	add	r1, r2, r1
    c3c6:	2440 	addi	r2, r1, 0
    c3c8:	33bd 	ld	r1, -6(r6)
    c3ca:	08a9 	sub	r4, r2, r1
    c3cc:	21b0 	addi	r0, r6, -16
    c3ce:	2300 	addi	r1, r4, 0
    c3d0:	0221 	add	r1, r0, r1
    c3d2:	d240 	ldb	r1, 0(r1)
    c3d4:	35b7 	ld	r2, -18(r6)
    c3d6:	e280 	stb	0(r2), r1
    c3d8:	33bf 	ld	r1, -2(r6)
    c3da:	2241 	addi	r1, r1, 1
    c3dc:	43bf 	st	-2(r6), r1

0000c3de <__condfor2>:
    c3de:	35be 	ld	r2, -4(r6)
    c3e0:	33bd 	ld	r1, -6(r6)
    c3e2:	04a1 	add	r2, r2, r1
    c3e4:	33bf 	ld	r1, -2(r6)
    c3e6:	1281 	cmplt	r1, r2, r1
    c3e8:	62e5 	bz	r1, -52
    c3ea:	35bf 	ld	r2, -2(r6)
    c3ec:	3383 	ld	r1, 6(r6)
    c3ee:	04a1 	add	r2, r2, r1
    c3f0:	5200 	movi	r1, 0
    c3f2:	e280 	stb	0(r2), r1
    c3f4:	33bf 	ld	r1, -2(r6)
    c3f6:	31c3 	ld	r0, 6(r7)
    c3f8:	35c2 	ld	r2, 4(r7)
    c3fa:	37c1 	ld	r3, 2(r7)
    c3fc:	39c0 	ld	r4, 0(r7)
    c3fe:	2f80 	addi	r7, r6, 0
    c400:	3dc0 	ld	r6, 0(r7)
    c402:	3bc1 	ld	r5, 2(r7)
    c404:	2fc4 	addi	r7, r7, 4
    c406:	a143 	jmp	r5
